target datalayout = "e-m:e-p270:32:32-p271:32:32-p272:64:64-i64:64-i128:128-f80:128-n8:16:32:64-S128"
target triple = "x86_64-pc-linux-gnu"

%"class.arrow::Status" = type { ptr }

@.str.12 = private unnamed_addr constant [17 x i8] c"ftruncate failed\00", align 1
@.str.13 = private unnamed_addr constant [14 x i8] c"mremap failed\00", align 1

; Function Attrs: mustprogress nounwind uwtable
define linkonce_odr void @_ZN5arrow6StatusC2Ev(ptr noundef nonnull align 8 dereferenceable(8) %0) unnamed_addr #6 comdat align 2 {
  %2 = alloca ptr, align 8
  store ptr %0, ptr %2, align 8, !tbaa !43
  %3 = load ptr, ptr %2, align 8
  %4 = getelementptr inbounds nuw %"class.arrow::Status", ptr %3, i32 0, i32 0
  store ptr null, ptr %4, align 8, !tbaa !69
  ret void
}

; Function Attrs: mustprogress uwtable
define linkonce_odr void @_ZN5arrow8internal16IOErrorFromErrnoIJRPKcEEENS_6StatusEiDpOT_(ptr dead_on_unwind noalias writable sret(%"class.arrow::Status") align 8 %0, i32 noundef %1, ptr noundef nonnull align 8 dereferenceable(8) %2) #4 comdat {
  %4 = alloca ptr, align 8
  %5 = alloca i32, align 4
  %6 = alloca ptr, align 8
  store ptr %0, ptr %4, align 8
  store i32 %1, ptr %5, align 4, !tbaa !3
  store ptr %2, ptr %6, align 8, !tbaa !255
  %7 = load i32, ptr %5, align 4, !tbaa !3
  %8 = load ptr, ptr %6, align 8, !tbaa !255
  call void @_ZN5arrow8internal15StatusFromErrnoIJRPKcEEENS_6StatusEiNS_10StatusCodeEDpOT_(ptr dead_on_unwind writable sret(%"class.arrow::Status") align 8 %0, i32 noundef %7, i8 noundef signext 5, ptr noundef nonnull align 8 dereferenceable(8) %8)
  ret void
}

; Function Attrs: mustprogress nounwind uwtable
define linkonce_odr void @_ZN5arrow6Status2OKEv(ptr dead_on_unwind noalias writable sret(%"class.arrow::Status") align 8 %0) #6 comdat align 2 {
  %2 = alloca ptr, align 8
  store ptr %0, ptr %2, align 8
  call void @_ZN5arrow6StatusC2Ev(ptr noundef nonnull align 8 dereferenceable(8) %0) #3
  ret void
}

; Function Attrs: mustprogress uwtable
define internal void @_ZN5arrow8internal12_GLOBAL__N_119StatusFromMmapErrnoEPKc(ptr dead_on_unwind noalias writable sret(%"class.arrow::Status") align 8 %0, ptr noundef %1) #4 {
  %3 = alloca ptr, align 8
  %4 = alloca ptr, align 8
  store ptr %0, ptr %3, align 8
  store ptr %1, ptr %4, align 8, !tbaa !12
  %5 = call ptr @__errno_location() #28
  %6 = load i32, ptr %5, align 4, !tbaa !3
  call void @_ZN5arrow8internal16IOErrorFromErrnoIJRPKcEEENS_6StatusEiDpOT_(ptr dead_on_unwind writable sret(%"class.arrow::Status") align 8 %0, i32 noundef %6, ptr noundef nonnull align 8 dereferenceable(8) %4)
  ret void
}

; Function Attrs: mustprogress uwtable
define void @_ZN5arrow8internal14MemoryMapRemapEPvmmiPS1_(ptr dead_on_unwind noalias writable sret(%"class.arrow::Status") align 8 %0, ptr noundef %1, i64 noundef %2, i64 noundef %3, i32 noundef %4, ptr noundef %5) #4 {
  %7 = alloca ptr, align 8
  %8 = alloca ptr, align 8
  %9 = alloca i64, align 8
  %10 = alloca i64, align 8
  %11 = alloca i32, align 4
  %12 = alloca ptr, align 8
  store ptr %0, ptr %7, align 8
  store ptr %1, ptr %8, align 8, !tbaa !100
  store i64 %2, ptr %9, align 8, !tbaa !62
  store i64 %3, ptr %10, align 8, !tbaa !62
  store i32 %4, ptr %11, align 4, !tbaa !3
  store ptr %5, ptr %12, align 8, !tbaa !100
  %13 = load ptr, ptr %12, align 8, !tbaa !100
  store ptr inttoptr (i64 -1 to ptr), ptr %13, align 8, !tbaa !100
  %14 = load i32, ptr %11, align 4, !tbaa !3
  %15 = load i64, ptr %10, align 8, !tbaa !62
  %16 = call i32 @ftruncate64(i32 noundef %14, i64 noundef %15) #3
  %17 = icmp eq i32 %16, -1
  br i1 %17, label %18, label %19

18:                                               ; preds = %6
  call void @_ZN5arrow8internal12_GLOBAL__N_119StatusFromMmapErrnoEPKc(ptr dead_on_unwind writable sret(%"class.arrow::Status") align 8 %0, ptr noundef @.str.12)
  br label %30

19:                                               ; preds = %6
  %20 = load ptr, ptr %8, align 8, !tbaa !100
  %21 = load i64, ptr %9, align 8, !tbaa !62
  %22 = load i64, ptr %10, align 8, !tbaa !62
  %23 = call ptr (ptr, i64, i64, i32, ...) @mremap(ptr noundef %20, i64 noundef %21, i64 noundef %22, i32 noundef 1) #3
  %24 = load ptr, ptr %12, align 8, !tbaa !100
  store ptr %23, ptr %24, align 8, !tbaa !100
  %25 = load ptr, ptr %12, align 8, !tbaa !100
  %26 = load ptr, ptr %25, align 8, !tbaa !100
  %27 = icmp eq ptr %26, inttoptr (i64 -1 to ptr)
  br i1 %27, label %28, label %29

28:                                               ; preds = %19
  call void @_ZN5arrow8internal12_GLOBAL__N_119StatusFromMmapErrnoEPKc(ptr dead_on_unwind writable sret(%"class.arrow::Status") align 8 %0, ptr noundef @.str.13)
  br label %30

29:                                               ; preds = %19
  call void @_ZN5arrow6Status2OKEv(ptr dead_on_unwind writable sret(%"class.arrow::Status") align 8 %0)
  br label %30

30:                                               ; preds = %29, %28, %18
  ret void
}