; Function Attrs: mustprogress uwtable
define void @_ZN5arrow8internal14MemoryMapRemapEPvmmiPS1_(ptr dead_on_unwind noalias writable sret(%"class.arrow::Status") align 8 %0, ptr noundef %1, i64 noundef %2, i64 noundef %3, i32 noundef %4, ptr noundef writeonly captures(none) initializes((0, 8)) %5) local_unnamed_addr #3 {
  %7 = alloca ptr, align 8
  %8 = alloca ptr, align 8
  store ptr inttoptr (i64 -1 to ptr), ptr %5, align 8, !tbaa !459
  %9 = tail call i32 @ftruncate64(i32 noundef %4, i64 noundef %3) #38
  %10 = icmp eq i32 %9, -1
  br i1 %10, label %11, label %14

11:                                               ; preds = %6
  call void @llvm.lifetime.start.p0(i64 8, ptr nonnull %8)
  store ptr @.str.12, ptr %8, align 8, !tbaa !460, !noalias !461
  %12 = tail call ptr @__errno_location() #42
  %13 = load i32, ptr %12, align 4, !tbaa !38, !noalias !461
  call void @_ZN5arrow8internal15StatusFromErrnoIJRPKcEEENS_6StatusEiNS_10StatusCodeEDpOT_(ptr dead_on_unwind writable sret(%"class.arrow::Status") align 8 %0, i32 noundef %13, i8 noundef signext 5, ptr noundef nonnull align 8 dereferenceable(8) %8)
  call void @llvm.lifetime.end.p0(i64 8, ptr nonnull %8)
  br label %21

14:                                               ; preds = %6
  %15 = tail call ptr (ptr, i64, i64, i32, ...) @mremap(ptr noundef %1, i64 noundef %2, i64 noundef %3, i32 noundef 1) #38
  store ptr %15, ptr %5, align 8, !tbaa !459
  %16 = icmp eq ptr %15, inttoptr (i64 -1 to ptr)
  br i1 %16, label %17, label %20

17:                                               ; preds = %14
  call void @llvm.lifetime.start.p0(i64 8, ptr nonnull %7)
  store ptr @.str.13, ptr %7, align 8, !tbaa !460, !noalias !464
  %18 = tail call ptr @__errno_location() #42
  %19 = load i32, ptr %18, align 4, !tbaa !38, !noalias !464
  call void @_ZN5arrow8internal15StatusFromErrnoIJRPKcEEENS_6StatusEiNS_10StatusCodeEDpOT_(ptr dead_on_unwind writable sret(%"class.arrow::Status") align 8 %0, i32 noundef %19, i8 noundef signext 5, ptr noundef nonnull align 8 dereferenceable(8) %7)
  call void @llvm.lifetime.end.p0(i64 8, ptr nonnull %7)
  br label %21

20:                                               ; preds = %14
  store ptr null, ptr %0, align 8, !tbaa !89, !alias.scope !467
  br label %21

21:                                               ; preds = %20, %17, %11
  ret void
}